target datalayout = "e-m:e-p270:32:32-p271:32:32-p272:64:64-i64:64-i128:128-f80:128-n8:16:32:64-S128"
target triple = "x86_64-pc-linux-gnu"

%struct.lstopo_output = type { ptr, i32, i32, i32, ptr, i32, i32, i32, i32, i32, i32, i32, i32, ptr, ptr, i32, i32, i64, i64, i64, i32, [3 x [128 x i8]], i32, i32, ptr, i32, i32, i32, i32, i32, i32, %struct.hwloc_calc_level, i32, i32, i32, i64, [256 x i8], i32, i32, i32, i32, i32, float, [20 x i32], i32, i32, i32, [20 x i32], i32, [20 x i32], i32, [20 x i32], i32, i32, i32, i32, ptr, ptr, i32, [20 x i32], [20 x i32], [20 x i32], ptr, ptr, i64, ptr, i32, i32, i32 }
%struct.hwloc_calc_level = type { i32, i32, %union.hwloc_obj_attr_u, [32 x i8], i32, i32, i32, i32 }
%union.hwloc_obj_attr_u = type { %struct.hwloc_numanode_attr_s, [24 x i8] }
%struct.hwloc_numanode_attr_s = type { i64, i32, ptr }
%struct.draw_methods = type { ptr, ptr, ptr, ptr, ptr, ptr }
%struct.hwloc_obj = type { i32, ptr, i32, ptr, i64, ptr, i32, i32, ptr, ptr, ptr, i32, ptr, ptr, i32, ptr, ptr, ptr, i32, i32, ptr, i32, ptr, i32, ptr, ptr, ptr, ptr, ptr, %struct.hwloc_infos_s, ptr, i64 }
%struct.hwloc_infos_s = type { ptr, i32, i32 }
%struct.lstopo_obj_userdata = type { %struct.hwloc_utils_userdata, i32, i32, %struct.lstopo_style, i32, i32, i32, i32, %struct.lstopo_children_position, %struct.lstopo_children_position, %struct.lstopo_children_position, %struct.lstopo_children_position, i32, i32, i32, [4 x %struct.lstopo_text_line], i32, i32 }
%struct.hwloc_utils_userdata = type { ptr, i64, ptr, ptr }
%struct.lstopo_style = type { ptr, ptr, ptr }
%struct.lstopo_children_position = type { i32, i32, i32, i32, i32, i32, ptr }
%struct.lstopo_text_line = type { [128 x i8], i32, i32 }

; Function Attrs: nounwind uwtable
define internal void @draw_text(ptr noundef %0, ptr noundef %1, ptr noundef %2, i32 noundef %3, i32 noundef %4, i32 noundef %5) #0 {
  %7 = alloca ptr, align 8
  %8 = alloca ptr, align 8
  %9 = alloca ptr, align 8
  %10 = alloca i32, align 4
  %11 = alloca i32, align 4
  %12 = alloca i32, align 4
  %13 = alloca ptr, align 8
  %14 = alloca ptr, align 8
  %15 = alloca i32, align 4
  %16 = alloca i32, align 4
  %17 = alloca i32, align 4
  %18 = alloca i32, align 4
  store ptr %0, ptr %7, align 8, !tbaa !4
  store ptr %1, ptr %8, align 8, !tbaa !42
  store ptr %2, ptr %9, align 8, !tbaa !20
  store i32 %3, ptr %10, align 4, !tbaa !18
  store i32 %4, ptr %11, align 4, !tbaa !18
  store i32 %5, ptr %12, align 4, !tbaa !18
  call void @llvm.lifetime.start.p0(i64 8, ptr %13) #12
  %19 = load ptr, ptr %7, align 8, !tbaa !4
  %20 = getelementptr inbounds nuw %struct.lstopo_output, ptr %19, i32 0, i32 65
  %21 = load ptr, ptr %20, align 8, !tbaa !35
  store ptr %21, ptr %13, align 8, !tbaa !74
  call void @llvm.lifetime.start.p0(i64 8, ptr %14) #12
  %22 = load ptr, ptr %8, align 8, !tbaa !42
  %23 = getelementptr inbounds nuw %struct.hwloc_obj, ptr %22, i32 0, i32 30
  %24 = load ptr, ptr %23, align 8, !tbaa !44
  store ptr %24, ptr %14, align 8, !tbaa !50
  call void @llvm.lifetime.start.p0(i64 4, ptr %15) #12
  %25 = load ptr, ptr %7, align 8, !tbaa !4
  %26 = getelementptr inbounds nuw %struct.lstopo_output, ptr %25, i32 0, i32 39
  %27 = load i32, ptr %26, align 8, !tbaa !76
  store i32 %27, ptr %15, align 4, !tbaa !18
  call void @llvm.lifetime.start.p0(i64 4, ptr %16) #12
  %28 = load ptr, ptr %7, align 8, !tbaa !4
  %29 = getelementptr inbounds nuw %struct.lstopo_output, ptr %28, i32 0, i32 40
  %30 = load i32, ptr %29, align 4, !tbaa !77
  store i32 %30, ptr %16, align 4, !tbaa !18
  call void @llvm.lifetime.start.p0(i64 4, ptr %17) #12
  %31 = load ptr, ptr %7, align 8, !tbaa !4
  %32 = getelementptr inbounds nuw %struct.lstopo_output, ptr %31, i32 0, i32 48
  %33 = load i32, ptr %32, align 4, !tbaa !124
  %34 = icmp ne i32 %33, 0
  br i1 %34, label %35, label %45

35:                                               ; preds = %6
  %36 = load ptr, ptr %7, align 8, !tbaa !4
  %37 = getelementptr inbounds nuw %struct.lstopo_output, ptr %36, i32 0, i32 49
  %38 = load ptr, ptr %8, align 8, !tbaa !42
  %39 = getelementptr inbounds nuw %struct.hwloc_obj, ptr %38, i32 0, i32 0
  %40 = load i32, ptr %39, align 8, !tbaa !96
  %41 = zext i32 %40 to i64
  %42 = getelementptr inbounds nuw [20 x i32], ptr %37, i64 0, i64 %41
  %43 = load i32, ptr %42, align 4, !tbaa !18
  %44 = icmp ne i32 %43, 0
  br i1 %44, label %46, label %45

45:                                               ; preds = %35, %6
  store i32 1, ptr %18, align 4
  br label %90

46:                                               ; preds = %35
  store i32 0, ptr %17, align 4, !tbaa !18
  br label %47

47:                                               ; preds = %86, %46
  %48 = load i32, ptr %17, align 4, !tbaa !18
  %49 = load ptr, ptr %14, align 8, !tbaa !50
  %50 = getelementptr inbounds nuw %struct.lstopo_obj_userdata, ptr %49, i32 0, i32 16
  %51 = load i32, ptr %50, align 4, !tbaa !111
  %52 = icmp ult i32 %48, %51
  br i1 %52, label %53, label %89

53:                                               ; preds = %47
  %54 = load ptr, ptr %13, align 8, !tbaa !74
  %55 = getelementptr inbounds nuw %struct.draw_methods, ptr %54, i32 0, i32 4
  %56 = load ptr, ptr %55, align 8, !tbaa !102
  %57 = load ptr, ptr %7, align 8, !tbaa !4
  %58 = load ptr, ptr %9, align 8, !tbaa !20
  %59 = load i32, ptr %15, align 4, !tbaa !18
  %60 = load i32, ptr %10, align 4, !tbaa !18
  %61 = load i32, ptr %11, align 4, !tbaa !18
  %62 = load ptr, ptr %14, align 8, !tbaa !50
  %63 = getelementptr inbounds nuw %struct.lstopo_obj_userdata, ptr %62, i32 0, i32 15
  %64 = load i32, ptr %17, align 4, !tbaa !18
  %65 = zext i32 %64 to i64
  %66 = getelementptr inbounds nuw [4 x %struct.lstopo_text_line], ptr %63, i64 0, i64 %65
  %67 = getelementptr inbounds nuw %struct.lstopo_text_line, ptr %66, i32 0, i32 2
  %68 = load i32, ptr %67, align 4, !tbaa !114
  %69 = add i32 %61, %68
  %70 = load i32, ptr %12, align 4, !tbaa !18
  %71 = load i32, ptr %17, align 4, !tbaa !18
  %72 = load i32, ptr %16, align 4, !tbaa !18
  %73 = load i32, ptr %15, align 4, !tbaa !18
  %74 = add i32 %72, %73
  %75 = mul i32 %71, %74
  %76 = add i32 %70, %75
  %77 = load ptr, ptr %14, align 8, !tbaa !50
  %78 = getelementptr inbounds nuw %struct.lstopo_obj_userdata, ptr %77, i32 0, i32 15
  %79 = load i32, ptr %17, align 4, !tbaa !18
  %80 = zext i32 %79 to i64
  %81 = getelementptr inbounds nuw [4 x %struct.lstopo_text_line], ptr %78, i64 0, i64 %80
  %82 = getelementptr inbounds nuw %struct.lstopo_text_line, ptr %81, i32 0, i32 0
  %83 = getelementptr inbounds [128 x i8], ptr %82, i64 0, i64 0
  %84 = load ptr, ptr %8, align 8, !tbaa !42
  %85 = load i32, ptr %17, align 4, !tbaa !18
  call void %56(ptr noundef %57, ptr noundef %58, i32 noundef %59, i32 noundef %60, i32 noundef %69, i32 noundef %76, ptr noundef %83, ptr noundef %84, i32 noundef %85)
  br label %86

86:                                               ; preds = %53
  %87 = load i32, ptr %17, align 4, !tbaa !18
  %88 = add i32 %87, 1
  store i32 %88, ptr %17, align 4, !tbaa !18
  br label %47, !llvm.loop !196

89:                                               ; preds = %47
  store i32 0, ptr %18, align 4
  br label %90

90:                                               ; preds = %89, %45
  call void @llvm.lifetime.end.p0(i64 4, ptr %17) #12
  call void @llvm.lifetime.end.p0(i64 4, ptr %16) #12
  call void @llvm.lifetime.end.p0(i64 4, ptr %15) #12
  call void @llvm.lifetime.end.p0(i64 8, ptr %14) #12
  call void @llvm.lifetime.end.p0(i64 8, ptr %13) #12
  %91 = load i32, ptr %18, align 4
  switch i32 %91, label %93 [
    i32 0, label %92
    i32 1, label %92
  ]

92:                                               ; preds = %90, %90
  ret void

93:                                               ; preds = %90
  unreachable
}

; Function Attrs: nounwind uwtable
define internal void @cache_draw(ptr noundef %0, ptr noundef %1, i32 noundef %2, i32 noundef %3, i32 noundef %4) #0 {
  %6 = alloca ptr, align 8
  %7 = alloca ptr, align 8
  %8 = alloca i32, align 4
  %9 = alloca i32, align 4
  %10 = alloca i32, align 4
  %11 = alloca ptr, align 8
  %12 = alloca i32, align 4
  %13 = alloca i32, align 4
  %14 = alloca i32, align 4
  %15 = alloca ptr, align 8
  %16 = alloca %struct.lstopo_style, align 8
  %17 = alloca i32, align 4
  %18 = alloca i32, align 4
  %19 = alloca i32, align 4
  store ptr %0, ptr %6, align 8, !tbaa !4
  store ptr %1, ptr %7, align 8, !tbaa !42
  store i32 %2, ptr %8, align 4, !tbaa !18
  store i32 %3, ptr %9, align 4, !tbaa !18
  store i32 %4, ptr %10, align 4, !tbaa !18
  call void @llvm.lifetime.start.p0(i64 8, ptr %11) #12
  %20 = load ptr, ptr %7, align 8, !tbaa !42
  %21 = getelementptr inbounds nuw %struct.hwloc_obj, ptr %20, i32 0, i32 30
  %22 = load ptr, ptr %21, align 8, !tbaa !44
  store ptr %22, ptr %11, align 8, !tbaa !50
  call void @llvm.lifetime.start.p0(i64 4, ptr %12) #12
  %23 = load ptr, ptr %6, align 8, !tbaa !4
  %24 = getelementptr inbounds nuw %struct.lstopo_output, ptr %23, i32 0, i32 38
  %25 = load i32, ptr %24, align 4, !tbaa !75
  store i32 %25, ptr %12, align 4, !tbaa !18
  call void @llvm.lifetime.start.p0(i64 4, ptr %13) #12
  %26 = load ptr, ptr %6, align 8, !tbaa !4
  %27 = getelementptr inbounds nuw %struct.lstopo_output, ptr %26, i32 0, i32 39
  %28 = load i32, ptr %27, align 8, !tbaa !76
  store i32 %28, ptr %13, align 4, !tbaa !18
  %29 = load ptr, ptr %6, align 8, !tbaa !4
  %30 = getelementptr inbounds nuw %struct.lstopo_output, ptr %29, i32 0, i32 58
  %31 = load i32, ptr %30, align 8, !tbaa !145
  %32 = icmp ne i32 %31, 0
  br i1 %32, label %33, label %59

33:                                               ; preds = %5
  %34 = load ptr, ptr %11, align 8, !tbaa !50
  %35 = getelementptr inbounds nuw %struct.lstopo_obj_userdata, ptr %34, i32 0, i32 2
  %36 = load i32, ptr %35, align 4, !tbaa !146
  %37 = icmp eq i32 %36, 1
  br i1 %37, label %38, label %59

38:                                               ; preds = %33
  %39 = load ptr, ptr %7, align 8, !tbaa !42
  %40 = getelementptr inbounds nuw %struct.hwloc_obj, ptr %39, i32 0, i32 10
  %41 = load ptr, ptr %40, align 8, !tbaa !142
  %42 = getelementptr inbounds nuw %struct.hwloc_obj, ptr %41, i32 0, i32 14
  %43 = load i32, ptr %42, align 8, !tbaa !147
  %44 = load ptr, ptr %6, align 8, !tbaa !4
  %45 = getelementptr inbounds nuw %struct.lstopo_output, ptr %44, i32 0, i32 59
  %46 = load ptr, ptr %7, align 8, !tbaa !42
  %47 = getelementptr inbounds nuw %struct.hwloc_obj, ptr %46, i32 0, i32 0
  %48 = load i32, ptr %47, align 8, !tbaa !96
  %49 = zext i32 %48 to i64
  %50 = getelementptr inbounds nuw [20 x i32], ptr %45, i64 0, i64 %49
  %51 = load i32, ptr %50, align 4, !tbaa !18
  %52 = icmp ugt i32 %43, %51
  br i1 %52, label %53, label %59

53:                                               ; preds = %38
  %54 = load ptr, ptr %6, align 8, !tbaa !4
  %55 = load ptr, ptr %7, align 8, !tbaa !42
  %56 = load i32, ptr %8, align 4, !tbaa !18
  %57 = load i32, ptr %9, align 4, !tbaa !18
  %58 = load i32, ptr %10, align 4, !tbaa !18
  call void @factorized_draw(ptr noundef %54, ptr noundef %55, i32 noundef %56, i32 noundef %57, i32 noundef %58)
  store i32 1, ptr %14, align 4
  br label %172

59:                                               ; preds = %38, %33, %5
  %60 = load ptr, ptr %6, align 8, !tbaa !4
  %61 = getelementptr inbounds nuw %struct.lstopo_output, ptr %60, i32 0, i32 66
  %62 = load i32, ptr %61, align 8, !tbaa !78
  %63 = icmp eq i32 %62, 0
  br i1 %63, label %64, label %100

64:                                               ; preds = %59
  %65 = load ptr, ptr %6, align 8, !tbaa !4
  %66 = load ptr, ptr %7, align 8, !tbaa !42
  call void @prepare_text(ptr noundef %65, ptr noundef %66)
  %67 = load i32, ptr %12, align 4, !tbaa !18
  %68 = load ptr, ptr %11, align 8, !tbaa !50
  %69 = getelementptr inbounds nuw %struct.lstopo_obj_userdata, ptr %68, i32 0, i32 6
  store i32 %67, ptr %69, align 8, !tbaa !97
  %70 = load i32, ptr %12, align 4, !tbaa !18
  %71 = load ptr, ptr %11, align 8, !tbaa !50
  %72 = getelementptr inbounds nuw %struct.lstopo_obj_userdata, ptr %71, i32 0, i32 7
  store i32 %70, ptr %72, align 4, !tbaa !99
  %73 = load ptr, ptr %11, align 8, !tbaa !50
  %74 = getelementptr inbounds nuw %struct.lstopo_obj_userdata, ptr %73, i32 0, i32 16
  %75 = load i32, ptr %74, align 4, !tbaa !111
  %76 = icmp ugt i32 %75, 0
  br i1 %76, label %77, label %94

77:                                               ; preds = %64
  %78 = load ptr, ptr %11, align 8, !tbaa !50
  %79 = getelementptr inbounds nuw %struct.lstopo_obj_userdata, ptr %78, i32 0, i32 17
  %80 = load i32, ptr %79, align 8, !tbaa !109
  %81 = load i32, ptr %12, align 4, !tbaa !18
  %82 = add i32 %80, %81
  %83 = load ptr, ptr %11, align 8, !tbaa !50
  %84 = getelementptr inbounds nuw %struct.lstopo_obj_userdata, ptr %83, i32 0, i32 6
  %85 = load i32, ptr %84, align 8, !tbaa !97
  %86 = add i32 %85, %82
  store i32 %86, ptr %84, align 8, !tbaa !97
  %87 = load i32, ptr %13, align 4, !tbaa !18
  %88 = load i32, ptr %12, align 4, !tbaa !18
  %89 = add i32 %87, %88
  %90 = load ptr, ptr %11, align 8, !tbaa !50
  %91 = getelementptr inbounds nuw %struct.lstopo_obj_userdata, ptr %90, i32 0, i32 7
  %92 = load i32, ptr %91, align 4, !tbaa !99
  %93 = add i32 %92, %89
  store i32 %93, ptr %91, align 4, !tbaa !99
  br label %94

94:                                               ; preds = %77, %64
  %95 = load ptr, ptr %6, align 8, !tbaa !4
  %96 = load ptr, ptr %7, align 8, !tbaa !42
  %97 = load ptr, ptr %11, align 8, !tbaa !50
  %98 = getelementptr inbounds nuw %struct.lstopo_obj_userdata, ptr %97, i32 0, i32 7
  %99 = load i32, ptr %98, align 4, !tbaa !99
  call void @place_children(ptr noundef %95, ptr noundef %96, i32 noundef 0, i32 noundef %99)
  br label %171

100:                                              ; preds = %59
  call void @llvm.lifetime.start.p0(i64 8, ptr %15) #12
  %101 = load ptr, ptr %6, align 8, !tbaa !4
  %102 = getelementptr inbounds nuw %struct.lstopo_output, ptr %101, i32 0, i32 65
  %103 = load ptr, ptr %102, align 8, !tbaa !35
  store ptr %103, ptr %15, align 8, !tbaa !74
  call void @llvm.lifetime.start.p0(i64 24, ptr %16) #12
  call void @llvm.lifetime.start.p0(i64 4, ptr %17) #12
  call void @llvm.lifetime.start.p0(i64 4, ptr %18) #12
  store i32 0, ptr %18, align 4, !tbaa !18
  call void @llvm.lifetime.start.p0(i64 4, ptr %19) #12
  %104 = load ptr, ptr %11, align 8, !tbaa !50
  %105 = getelementptr inbounds nuw %struct.lstopo_obj_userdata, ptr %104, i32 0, i32 6
  %106 = load i32, ptr %105, align 8, !tbaa !97
  store i32 %106, ptr %17, align 4, !tbaa !18
  %107 = load i32, ptr %12, align 4, !tbaa !18
  store i32 %107, ptr %19, align 4, !tbaa !18
  %108 = load ptr, ptr %11, align 8, !tbaa !50
  %109 = getelementptr inbounds nuw %struct.lstopo_obj_userdata, ptr %108, i32 0, i32 16
  %110 = load i32, ptr %109, align 4, !tbaa !111
  %111 = icmp ugt i32 %110, 0
  br i1 %111, label %112, label %118

112:                                              ; preds = %100
  %113 = load i32, ptr %13, align 4, !tbaa !18
  %114 = load i32, ptr %12, align 4, !tbaa !18
  %115 = add i32 %113, %114
  %116 = load i32, ptr %19, align 4, !tbaa !18
  %117 = add i32 %116, %115
  store i32 %117, ptr %19, align 4, !tbaa !18
  br label %118

118:                                              ; preds = %112, %100
  %119 = load ptr, ptr %11, align 8, !tbaa !50
  %120 = getelementptr inbounds nuw %struct.lstopo_obj_userdata, ptr %119, i32 0, i32 9
  %121 = getelementptr inbounds nuw %struct.lstopo_children_position, ptr %120, i32 0, i32 0
  %122 = load i32, ptr %121, align 8, !tbaa !148
  %123 = icmp ne i32 %122, 0
  br i1 %123, label %124, label %134

124:                                              ; preds = %118
  %125 = load ptr, ptr %11, align 8, !tbaa !50
  %126 = getelementptr inbounds nuw %struct.lstopo_obj_userdata, ptr %125, i32 0, i32 9
  %127 = getelementptr inbounds nuw %struct.lstopo_children_position, ptr %126, i32 0, i32 2
  %128 = load i32, ptr %127, align 8, !tbaa !149
  %129 = load i32, ptr %12, align 4, !tbaa !18
  %130 = add i32 %128, %129
  store i32 %130, ptr %18, align 4, !tbaa !18
  %131 = load ptr, ptr %11, align 8, !tbaa !50
  %132 = getelementptr inbounds nuw %struct.lstopo_obj_userdata, ptr %131, i32 0, i32 9
  %133 = getelementptr inbounds nuw %struct.lstopo_children_position, ptr %132, i32 0, i32 4
  store i32 0, ptr %133, align 8, !tbaa !150
  br label %134

134:                                              ; preds = %124, %118
  %135 = load ptr, ptr %6, align 8, !tbaa !4
  %136 = load ptr, ptr %7, align 8, !tbaa !42
  call void @lstopo_set_object_color(ptr noundef %135, ptr noundef %136, ptr noundef %16)
  %137 = load ptr, ptr %15, align 8, !tbaa !74
  %138 = getelementptr inbounds nuw %struct.draw_methods, ptr %137, i32 0, i32 2
  %139 = load ptr, ptr %138, align 8, !tbaa !101
  %140 = load ptr, ptr %6, align 8, !tbaa !4
  %141 = getelementptr inbounds nuw %struct.lstopo_style, ptr %16, i32 0, i32 0
  %142 = load ptr, ptr %141, align 8, !tbaa !60
  %143 = load i32, ptr %8, align 4, !tbaa !18
  %144 = load i32, ptr %9, align 4, !tbaa !18
  %145 = load i32, ptr %17, align 4, !tbaa !18
  %146 = load i32, ptr %10, align 4, !tbaa !18
  %147 = load i32, ptr %18, align 4, !tbaa !18
  %148 = add i32 %146, %147
  %149 = load i32, ptr %19, align 4, !tbaa !18
  %150 = load ptr, ptr %7, align 8, !tbaa !42
  call void %139(ptr noundef %140, ptr noundef %142, i32 noundef %143, i32 noundef %144, i32 noundef %145, i32 noundef %148, i32 noundef %149, ptr noundef %150, i32 noundef 0)
  %151 = load ptr, ptr %6, align 8, !tbaa !4
  %152 = load ptr, ptr %7, align 8, !tbaa !42
  %153 = getelementptr inbounds nuw %struct.lstopo_style, ptr %16, i32 0, i32 1
  %154 = load ptr, ptr %153, align 8, !tbaa !61
  %155 = load i32, ptr %8, align 4, !tbaa !18
  %156 = sub i32 %155, 1
  %157 = load i32, ptr %9, align 4, !tbaa !18
  %158 = load i32, ptr %12, align 4, !tbaa !18
  %159 = add i32 %157, %158
  %160 = load i32, ptr %10, align 4, !tbaa !18
  %161 = load i32, ptr %12, align 4, !tbaa !18
  %162 = add i32 %160, %161
  %163 = load i32, ptr %18, align 4, !tbaa !18
  %164 = add i32 %162, %163
  call void @draw_text(ptr noundef %151, ptr noundef %152, ptr noundef %154, i32 noundef %156, i32 noundef %159, i32 noundef %164)
  %165 = load ptr, ptr %6, align 8, !tbaa !4
  %166 = load ptr, ptr %7, align 8, !tbaa !42
  %167 = load i32, ptr %8, align 4, !tbaa !18
  %168 = sub i32 %167, 1
  %169 = load i32, ptr %9, align 4, !tbaa !18
  %170 = load i32, ptr %10, align 4, !tbaa !18
  call void @draw_children(ptr noundef %165, ptr noundef %166, i32 noundef %168, i32 noundef %169, i32 noundef %170)
  call void @llvm.lifetime.end.p0(i64 4, ptr %19) #12
  call void @llvm.lifetime.end.p0(i64 4, ptr %18) #12
  call void @llvm.lifetime.end.p0(i64 4, ptr %17) #12
  call void @llvm.lifetime.end.p0(i64 24, ptr %16) #12
  call void @llvm.lifetime.end.p0(i64 8, ptr %15) #12
  br label %171

171:                                              ; preds = %134, %94
  store i32 0, ptr %14, align 4
  br label %172

172:                                              ; preds = %171, %53
  call void @llvm.lifetime.end.p0(i64 4, ptr %13) #12
  call void @llvm.lifetime.end.p0(i64 4, ptr %12) #12
  call void @llvm.lifetime.end.p0(i64 8, ptr %11) #12
  %173 = load i32, ptr %14, align 4
  switch i32 %173, label %175 [
    i32 0, label %174
    i32 1, label %174
  ]

174:                                              ; preds = %172, %172
  ret void

175:                                              ; preds = %172
  unreachable
}