; Function Attrs: nounwind uwtable
define internal void @cache_draw(ptr noundef %0, ptr noundef %1, i32 noundef %2, i32 noundef %3, i32 noundef %4) unnamed_addr #8 {
  %6 = alloca %struct.lstopo_style, align 8
  %7 = getelementptr inbounds nuw i8, ptr %1, i64 232
  %8 = load ptr, ptr %7, align 8, !tbaa !37
  %9 = getelementptr inbounds nuw i8, ptr %0, i64 932
  %10 = load i32, ptr %9, align 4, !tbaa !67
  %11 = getelementptr inbounds nuw i8, ptr %0, i64 936
  %12 = load i32, ptr %11, align 8, !tbaa !68
  %13 = getelementptr inbounds nuw i8, ptr %0, i64 1328
  %14 = load i32, ptr %13, align 8, !tbaa !122
  %.not = icmp eq i32 %14, 0
  br i1 %.not, label %31, label %15

15:                                               ; preds = %5
  %16 = getelementptr inbounds nuw i8, ptr %8, i64 36
  %17 = load i32, ptr %16, align 4, !tbaa !123
  %18 = icmp eq i32 %17, 1
  br i1 %18, label %19, label %31

19:                                               ; preds = %15
  %20 = getelementptr inbounds nuw i8, ptr %1, i64 72
  %21 = load ptr, ptr %20, align 8, !tbaa !120
  %22 = getelementptr inbounds nuw i8, ptr %21, i64 104
  %23 = load i32, ptr %22, align 8, !tbaa !124
  %24 = getelementptr inbounds nuw i8, ptr %0, i64 1332
  %25 = load i32, ptr %1, align 8, !tbaa !96
  %26 = zext i32 %25 to i64
  %27 = getelementptr inbounds nuw [20 x i32], ptr %24, i64 0, i64 %26
  %28 = load i32, ptr %27, align 4, !tbaa !4
  %29 = icmp ugt i32 %23, %28
  br i1 %29, label %30, label %31

30:                                               ; preds = %19
  tail call fastcc void @factorized_draw(ptr noundef nonnull %0, ptr noundef nonnull %1, i32 noundef %2, i32 noundef %3, i32 noundef %4)
  br label %102

31:                                               ; preds = %19, %15, %5
  %32 = getelementptr inbounds nuw i8, ptr %0, i64 1608
  %33 = load i32, ptr %32, align 8, !tbaa !70
  %34 = icmp eq i32 %33, 0
  %35 = getelementptr inbounds nuw i8, ptr %8, i64 764
  br i1 %34, label %36, label %47

36:                                               ; preds = %31
  tail call fastcc void @prepare_text(ptr noundef nonnull %0, ptr noundef nonnull %1)
  %37 = getelementptr inbounds nuw i8, ptr %8, i64 72
  store i32 %10, ptr %37, align 8, !tbaa !98
  %38 = getelementptr inbounds nuw i8, ptr %8, i64 76
  store i32 %10, ptr %38, align 4, !tbaa !100
  %39 = load i32, ptr %35, align 4, !tbaa !90
  %.not67 = icmp eq i32 %39, 0
  br i1 %.not67, label %45, label %40

40:                                               ; preds = %36
  %41 = getelementptr inbounds nuw i8, ptr %8, i64 768
  %42 = load i32, ptr %41, align 8, !tbaa !88
  %reass.add68 = shl i32 %10, 1
  %43 = add i32 %42, %reass.add68
  store i32 %43, ptr %37, align 8, !tbaa !98
  %44 = add i32 %12, %reass.add68
  store i32 %44, ptr %38, align 4, !tbaa !100
  br label %45

45:                                               ; preds = %40, %36
  %46 = phi i32 [ %44, %40 ], [ %10, %36 ]
  tail call fastcc void @place_children(ptr noundef nonnull %0, ptr noundef nonnull %1, i32 noundef 0, i32 noundef %46)
  br label %102

47:                                               ; preds = %31
  %48 = getelementptr inbounds nuw i8, ptr %0, i64 1600
  %49 = load ptr, ptr %48, align 8, !tbaa !27
  call void @llvm.lifetime.start.p0(i64 24, ptr nonnull %6) #26
  %50 = getelementptr inbounds nuw i8, ptr %8, i64 72
  %51 = load i32, ptr %50, align 8, !tbaa !98
  %52 = load i32, ptr %35, align 4, !tbaa !90
  %.not65 = icmp eq i32 %52, 0
  %reass.add = shl i32 %10, 1
  %53 = add i32 %12, %reass.add
  %.0 = select i1 %.not65, i32 %10, i32 %53
  %54 = getelementptr inbounds nuw i8, ptr %8, i64 112
  %55 = load i32, ptr %54, align 8, !tbaa !126
  %.not66 = icmp eq i32 %55, 0
  br i1 %.not66, label %61, label %56

56:                                               ; preds = %47
  %57 = getelementptr inbounds nuw i8, ptr %8, i64 120
  %58 = load i32, ptr %57, align 8, !tbaa !127
  %59 = add i32 %58, %10
  %60 = getelementptr inbounds nuw i8, ptr %8, i64 128
  store i32 0, ptr %60, align 8, !tbaa !128
  br label %61

61:                                               ; preds = %56, %47
  %.064 = phi i32 [ %59, %56 ], [ 0, %47 ]
  call fastcc void @lstopo_set_object_color(ptr noundef nonnull %0, ptr noundef nonnull %1, ptr noundef %6)
  %62 = getelementptr inbounds nuw i8, ptr %49, i64 16
  %63 = load ptr, ptr %62, align 8, !tbaa !102
  %64 = load ptr, ptr %6, align 8, !tbaa !59
  %65 = add i32 %.064, %4
  tail call void %63(ptr noundef nonnull %0, ptr noundef %64, i32 noundef %2, i32 noundef %3, i32 noundef %51, i32 noundef %65, i32 noundef %.0, ptr noundef nonnull %1, i32 noundef 0) #26
  %66 = getelementptr inbounds nuw i8, ptr %6, i64 8
  %67 = load ptr, ptr %66, align 8, !tbaa !60
  %68 = add i32 %2, -1
  %69 = add i32 %10, %3
  %70 = add i32 %10, %4
  %71 = add i32 %70, %.064
  %72 = load ptr, ptr %48, align 8, !tbaa !27
  %73 = load ptr, ptr %7, align 8, !tbaa !37
  %74 = load i32, ptr %11, align 8, !tbaa !68
  %75 = getelementptr inbounds nuw i8, ptr %0, i64 940
  %76 = load i32, ptr %75, align 4, !tbaa !69
  %77 = getelementptr inbounds nuw i8, ptr %0, i64 1124
  %78 = load i32, ptr %77, align 4, !tbaa !107
  %.not.i = icmp eq i32 %78, 0
  br i1 %.not.i, label %draw_text.exit, label %79

79:                                               ; preds = %61
  %80 = getelementptr inbounds nuw i8, ptr %0, i64 1128
  %81 = load i32, ptr %1, align 8, !tbaa !96
  %82 = zext i32 %81 to i64
  %83 = getelementptr inbounds nuw [20 x i32], ptr %80, i64 0, i64 %82
  %84 = load i32, ptr %83, align 4, !tbaa !4
  %.not25.i = icmp eq i32 %84, 0
  br i1 %.not25.i, label %draw_text.exit, label %.preheader.i

.preheader.i:                                     ; preds = %79
  %85 = getelementptr inbounds nuw i8, ptr %73, i64 764
  %86 = load i32, ptr %85, align 4, !tbaa !90
  %.not27.i = icmp eq i32 %86, 0
  br i1 %.not27.i, label %draw_text.exit, label %.lr.ph.i

.lr.ph.i:                                         ; preds = %.preheader.i
  %87 = getelementptr inbounds nuw i8, ptr %72, i64 32
  %88 = getelementptr inbounds nuw i8, ptr %73, i64 220
  %89 = add i32 %76, %74
  br label %90

90:                                               ; preds = %90, %.lr.ph.i
  %indvars.iv.i = phi i64 [ 0, %.lr.ph.i ], [ %indvars.iv.next.i, %90 ]
  %91 = load ptr, ptr %87, align 8, !tbaa !103
  %92 = getelementptr inbounds nuw [4 x %struct.lstopo_text_line], ptr %88, i64 0, i64 %indvars.iv.i
  %93 = getelementptr inbounds nuw i8, ptr %92, i64 132
  %94 = load i32, ptr %93, align 4, !tbaa !93
  %95 = add i32 %69, %94
  %96 = trunc nuw i64 %indvars.iv.i to i32
  %97 = mul i32 %89, %96
  %98 = add i32 %71, %97
  tail call void %91(ptr noundef nonnull %0, ptr noundef %67, i32 noundef %74, i32 noundef %68, i32 noundef %95, i32 noundef %98, ptr noundef nonnull %92, ptr noundef nonnull %1, i32 noundef %96) #26
  %indvars.iv.next.i = add nuw nsw i64 %indvars.iv.i, 1
  %99 = load i32, ptr %85, align 4, !tbaa !90
  %100 = zext i32 %99 to i64
  %101 = icmp samesign ult i64 %indvars.iv.next.i, %100
  br i1 %101, label %90, label %draw_text.exit, !llvm.loop !125

draw_text.exit:                                   ; preds = %90, %61, %79, %.preheader.i
  tail call fastcc void @draw_children(ptr noundef nonnull %0, ptr noundef nonnull %1, i32 noundef %68, i32 noundef %3, i32 noundef %4)
  call void @llvm.lifetime.end.p0(i64 24, ptr nonnull %6) #26
  br label %102

102:                                              ; preds = %45, %draw_text.exit, %30
  ret void
}